; Function Attrs: mustprogress nounwind uwtable
define void @_ZN6icu_776number4impl32LocalizedNumberFormatterAsFormatD2Ev(ptr noundef nonnull align 8 dereferenceable(744) initializes((0, 8)) %0) unnamed_addr #0 align 2 {
  store ptr getelementptr inbounds nuw inrange(-16, 64) (i8, ptr @_ZTVN6icu_776number4impl32LocalizedNumberFormatterAsFormatE, i64 16), ptr %0, align 8, !tbaa !15
  %2 = getelementptr inbounds nuw i8, ptr %0, i64 520
  tail call void @_ZN6icu_776LocaleD1Ev(ptr noundef nonnull align 8 dereferenceable(217) %2) #15
  %3 = getelementptr inbounds nuw i8, ptr %0, i64 24
  tail call void @_ZN6icu_776number24LocalizedNumberFormatterD1Ev(ptr noundef nonnull align 8 dereferenceable(496) %3) #15
  tail call void @_ZN6icu_776FormatD2Ev(ptr noundef nonnull align 8 dereferenceable(24) %0) #15
  ret void
}